; Function Attrs: nounwind uwtable
define ptr @l_Lean_Compiler_LCNF_Simp_instMonadFVarSubstSimpMFalse___rarg(ptr noundef %0, ptr readnone captures(none) %1, ptr readnone captures(none) %2, ptr readnone captures(none) %3, ptr readnone captures(none) %4, ptr readnone captures(none) %5, ptr noundef %6) local_unnamed_addr #0 {
  %8 = tail call ptr @lean_st_ref_get(ptr noundef %0, ptr noundef %6) #5
  %.val = load i32, ptr %8, align 4, !tbaa !4
  %9 = icmp eq i32 %.val, 1
  %10 = getelementptr inbounds nuw i8, ptr %8, i64 8
  %11 = load ptr, ptr %10, align 8, !tbaa !9
  br i1 %9, label %12, label %32

12:                                               ; preds = %7
  %13 = getelementptr inbounds nuw i8, ptr %11, i64 8
  %14 = load ptr, ptr %13, align 8, !tbaa !9
  %15 = ptrtoint ptr %14 to i64
  %16 = and i64 %15, 1
  %.not46 = icmp eq i64 %16, 0
  br i1 %.not46, label %17, label %lean_inc.exit26

17:                                               ; preds = %12
  %.val.i = load i32, ptr %14, align 4, !tbaa !4
  %18 = icmp sgt i32 %.val.i, 0
  br i1 %18, label %19, label %21, !prof !13

19:                                               ; preds = %17
  %20 = add nuw i32 %.val.i, 1
  store i32 %20, ptr %14, align 4, !tbaa !4
  br label %lean_inc.exit26

21:                                               ; preds = %17
  %.not.i33 = icmp eq i32 %.val.i, 0
  br i1 %.not.i33, label %lean_inc.exit26, label %22

22:                                               ; preds = %21
  tail call void @lean_inc_ref_cold(ptr noundef nonnull %14) #5
  br label %lean_inc.exit26

lean_inc.exit26:                                  ; preds = %22, %21, %19, %12
  %23 = ptrtoint ptr %11 to i64
  %24 = and i64 %23, 1
  %.not47 = icmp eq i64 %24, 0
  br i1 %.not47, label %25, label %lean_dec.exit28

25:                                               ; preds = %lean_inc.exit26
  %26 = load i32, ptr %11, align 4, !tbaa !4
  %27 = icmp sgt i32 %26, 1
  br i1 %27, label %28, label %30, !prof !13

28:                                               ; preds = %25
  %29 = add nsw i32 %26, -1
  store i32 %29, ptr %11, align 4, !tbaa !4
  br label %lean_dec.exit28

30:                                               ; preds = %25
  %.not.i = icmp eq i32 %26, 0
  br i1 %.not.i, label %lean_dec.exit28, label %31

31:                                               ; preds = %30
  tail call void @lean_dec_ref_cold(ptr noundef nonnull %11) #5
  br label %lean_dec.exit28

lean_dec.exit28:                                  ; preds = %31, %30, %28, %lean_inc.exit26
  store ptr %14, ptr %10, align 8, !tbaa !9
  br label %83

32:                                               ; preds = %7
  %33 = getelementptr inbounds nuw i8, ptr %8, i64 16
  %34 = load ptr, ptr %33, align 8, !tbaa !9
  %35 = ptrtoint ptr %34 to i64
  %36 = and i64 %35, 1
  %.not = icmp eq i64 %36, 0
  br i1 %.not, label %37, label %lean_inc.exit25

37:                                               ; preds = %32
  %.val.i34 = load i32, ptr %34, align 4, !tbaa !4
  %38 = icmp sgt i32 %.val.i34, 0
  br i1 %38, label %39, label %41, !prof !13

39:                                               ; preds = %37
  %40 = add nuw i32 %.val.i34, 1
  store i32 %40, ptr %34, align 4, !tbaa !4
  br label %lean_inc.exit25

41:                                               ; preds = %37
  %.not.i35 = icmp eq i32 %.val.i34, 0
  br i1 %.not.i35, label %lean_inc.exit25, label %42

42:                                               ; preds = %41
  tail call void @lean_inc_ref_cold(ptr noundef nonnull %34) #5
  br label %lean_inc.exit25

lean_inc.exit25:                                  ; preds = %42, %41, %39, %32
  %43 = ptrtoint ptr %11 to i64
  %44 = and i64 %43, 1
  %.not43 = icmp eq i64 %44, 0
  br i1 %.not43, label %45, label %lean_inc.exit24

45:                                               ; preds = %lean_inc.exit25
  %.val.i37 = load i32, ptr %11, align 4, !tbaa !4
  %46 = icmp sgt i32 %.val.i37, 0
  br i1 %46, label %47, label %49, !prof !13

47:                                               ; preds = %45
  %48 = add nuw i32 %.val.i37, 1
  store i32 %48, ptr %11, align 4, !tbaa !4
  br label %lean_inc.exit24

49:                                               ; preds = %45
  %.not.i38 = icmp eq i32 %.val.i37, 0
  br i1 %.not.i38, label %lean_inc.exit24, label %50

50:                                               ; preds = %49
  tail call void @lean_inc_ref_cold(ptr noundef nonnull %11) #5
  br label %lean_inc.exit24

lean_inc.exit24:                                  ; preds = %50, %49, %47, %lean_inc.exit25
  %51 = ptrtoint ptr %8 to i64
  %52 = and i64 %51, 1
  %.not44 = icmp eq i64 %52, 0
  br i1 %.not44, label %53, label %lean_dec.exit27

53:                                               ; preds = %lean_inc.exit24
  %54 = load i32, ptr %8, align 4, !tbaa !4
  %55 = icmp sgt i32 %54, 1
  br i1 %55, label %56, label %58, !prof !13

56:                                               ; preds = %53
  %57 = add nsw i32 %54, -1
  store i32 %57, ptr %8, align 4, !tbaa !4
  br label %lean_dec.exit27

58:                                               ; preds = %53
  %.not.i29 = icmp eq i32 %54, 0
  br i1 %.not.i29, label %lean_dec.exit27, label %59

59:                                               ; preds = %58
  tail call void @lean_dec_ref_cold(ptr noundef nonnull %8) #5
  br label %lean_dec.exit27

lean_dec.exit27:                                  ; preds = %59, %58, %56, %lean_inc.exit24
  %60 = getelementptr inbounds nuw i8, ptr %11, i64 8
  %61 = load ptr, ptr %60, align 8, !tbaa !9
  %62 = ptrtoint ptr %61 to i64
  %63 = and i64 %62, 1
  %.not45 = icmp eq i64 %63, 0
  br i1 %.not45, label %64, label %lean_inc.exit

64:                                               ; preds = %lean_dec.exit27
  %.val.i40 = load i32, ptr %61, align 4, !tbaa !4
  %65 = icmp sgt i32 %.val.i40, 0
  br i1 %65, label %66, label %68, !prof !13

66:                                               ; preds = %64
  %67 = add nuw i32 %.val.i40, 1
  store i32 %67, ptr %61, align 4, !tbaa !4
  br label %lean_inc.exit

68:                                               ; preds = %64
  %.not.i41 = icmp eq i32 %.val.i40, 0
  br i1 %.not.i41, label %lean_inc.exit, label %69

69:                                               ; preds = %68
  tail call void @lean_inc_ref_cold(ptr noundef nonnull %61) #5
  br label %lean_inc.exit

lean_inc.exit:                                    ; preds = %69, %68, %66, %lean_dec.exit27
  br i1 %.not43, label %70, label %lean_dec.exit

70:                                               ; preds = %lean_inc.exit
  %71 = load i32, ptr %11, align 4, !tbaa !4
  %72 = icmp sgt i32 %71, 1
  br i1 %72, label %73, label %75, !prof !13

73:                                               ; preds = %70
  %74 = add nsw i32 %71, -1
  store i32 %74, ptr %11, align 4, !tbaa !4
  br label %lean_dec.exit

75:                                               ; preds = %70
  %.not.i31 = icmp eq i32 %71, 0
  br i1 %.not.i31, label %lean_dec.exit, label %76

76:                                               ; preds = %75
  tail call void @lean_dec_ref_cold(ptr noundef nonnull %11) #5
  br label %lean_dec.exit

lean_dec.exit:                                    ; preds = %76, %75, %73, %lean_inc.exit
  tail call void @lean_inc_heartbeat() #5
  %77 = tail call noalias ptr @mi_malloc_small(i64 noundef 24) #5
  %78 = icmp eq ptr %77, null
  br i1 %78, label %79, label %lean_alloc_ctor.exit

79:                                               ; preds = %lean_dec.exit
  tail call void @lean_internal_panic_out_of_memory() #6
  unreachable

lean_alloc_ctor.exit:                             ; preds = %lean_dec.exit
  %80 = getelementptr inbounds nuw i8, ptr %77, i64 4
  store i32 1, ptr %77, align 4, !tbaa !4
  store i32 131096, ptr %80, align 4
  %81 = getelementptr inbounds nuw i8, ptr %77, i64 8
  store ptr %61, ptr %81, align 8, !tbaa !9
  %82 = getelementptr inbounds nuw i8, ptr %77, i64 16
  store ptr %34, ptr %82, align 8, !tbaa !9
  br label %83

83:                                               ; preds = %lean_alloc_ctor.exit, %lean_dec.exit28
  %.0 = phi ptr [ %8, %lean_dec.exit28 ], [ %77, %lean_alloc_ctor.exit ]
  ret ptr %.0
}